target datalayout = "e-m:e-p270:32:32-p271:32:32-p272:64:64-i64:64-i128:128-f80:128-n8:16:32:64-S128"
target triple = "x86_64-pc-linux-gnu"

; Function Attrs: nounwind uwtable
define dso_local i32 @uv_socketpair(i32 noundef %0, i32 noundef %1, ptr noundef %2, i32 noundef %3, i32 noundef %4) #0 {
  %6 = alloca i32, align 4
  %7 = alloca i32, align 4
  %8 = alloca i32, align 4
  %9 = alloca ptr, align 8
  %10 = alloca i32, align 4
  %11 = alloca i32, align 4
  %12 = alloca [2 x i32], align 4
  %13 = alloca i32, align 4
  %14 = alloca i32, align 4
  %15 = alloca i32, align 4
  store i32 %0, ptr %7, align 4, !tbaa !11
  store i32 %1, ptr %8, align 4, !tbaa !11
  store ptr %2, ptr %9, align 8, !tbaa !48
  store i32 %3, ptr %10, align 4, !tbaa !11
  store i32 %4, ptr %11, align 4, !tbaa !11
  call void @llvm.lifetime.start.p0(i64 8, ptr %12) #8
  call void @llvm.lifetime.start.p0(i64 4, ptr %13) #8
  call void @llvm.lifetime.start.p0(i64 4, ptr %14) #8
  %16 = load i32, ptr %7, align 4, !tbaa !11
  %17 = or i32 %16, 524288
  store i32 %17, ptr %14, align 4, !tbaa !11
  %18 = load i32, ptr %10, align 4, !tbaa !11
  %19 = and i32 %18, 64
  %20 = icmp ne i32 %19, 0
  br i1 %20, label %21, label %28

21:                                               ; preds = %5
  %22 = load i32, ptr %11, align 4, !tbaa !11
  %23 = and i32 %22, 64
  %24 = icmp ne i32 %23, 0
  br i1 %24, label %25, label %28

25:                                               ; preds = %21
  %26 = load i32, ptr %14, align 4, !tbaa !11
  %27 = or i32 %26, 2048
  store i32 %27, ptr %14, align 4, !tbaa !11
  br label %28

28:                                               ; preds = %25, %21, %5
  %29 = load i32, ptr %14, align 4, !tbaa !11
  %30 = load i32, ptr %8, align 4, !tbaa !11
  %31 = getelementptr inbounds [2 x i32], ptr %12, i64 0, i64 0
  %32 = call i32 @socketpair(i32 noundef 1, i32 noundef %29, i32 noundef %30, ptr noundef %31) #8
  %33 = icmp ne i32 %32, 0
  br i1 %33, label %34, label %38

34:                                               ; preds = %28
  %35 = call ptr @__errno_location() #9
  %36 = load i32, ptr %35, align 4, !tbaa !11
  %37 = sub nsw i32 0, %36
  store i32 %37, ptr %6, align 4
  store i32 1, ptr %15, align 4
  br label %90

38:                                               ; preds = %28
  %39 = load i32, ptr %14, align 4, !tbaa !11
  %40 = and i32 %39, 2048
  %41 = icmp ne i32 %40, 0
  br i1 %41, label %42, label %51

42:                                               ; preds = %38
  %43 = getelementptr inbounds [2 x i32], ptr %12, i64 0, i64 0
  %44 = load i32, ptr %43, align 4, !tbaa !11
  %45 = load ptr, ptr %9, align 8, !tbaa !48
  %46 = getelementptr inbounds i32, ptr %45, i64 0
  store i32 %44, ptr %46, align 4, !tbaa !11
  %47 = getelementptr inbounds [2 x i32], ptr %12, i64 0, i64 1
  %48 = load i32, ptr %47, align 4, !tbaa !11
  %49 = load ptr, ptr %9, align 8, !tbaa !48
  %50 = getelementptr inbounds i32, ptr %49, i64 1
  store i32 %48, ptr %50, align 4, !tbaa !11
  store i32 0, ptr %6, align 4
  store i32 1, ptr %15, align 4
  br label %90

51:                                               ; preds = %38
  %52 = load i32, ptr %10, align 4, !tbaa !11
  %53 = and i32 %52, 64
  %54 = icmp ne i32 %53, 0
  br i1 %54, label %55, label %62

55:                                               ; preds = %51
  %56 = getelementptr inbounds [2 x i32], ptr %12, i64 0, i64 0
  %57 = load i32, ptr %56, align 4, !tbaa !11
  %58 = call i32 @uv__nonblock_ioctl(i32 noundef %57, i32 noundef 1)
  store i32 %58, ptr %13, align 4, !tbaa !11
  %59 = icmp ne i32 %58, 0
  br i1 %59, label %60, label %61

60:                                               ; preds = %55
  br label %82

61:                                               ; preds = %55
  br label %62

62:                                               ; preds = %61, %51
  %63 = load i32, ptr %11, align 4, !tbaa !11
  %64 = and i32 %63, 64
  %65 = icmp ne i32 %64, 0
  br i1 %65, label %66, label %73

66:                                               ; preds = %62
  %67 = getelementptr inbounds [2 x i32], ptr %12, i64 0, i64 1
  %68 = load i32, ptr %67, align 4, !tbaa !11
  %69 = call i32 @uv__nonblock_ioctl(i32 noundef %68, i32 noundef 1)
  store i32 %69, ptr %13, align 4, !tbaa !11
  %70 = icmp ne i32 %69, 0
  br i1 %70, label %71, label %72

71:                                               ; preds = %66
  br label %82

72:                                               ; preds = %66
  br label %73

73:                                               ; preds = %72, %62
  %74 = getelementptr inbounds [2 x i32], ptr %12, i64 0, i64 0
  %75 = load i32, ptr %74, align 4, !tbaa !11
  %76 = load ptr, ptr %9, align 8, !tbaa !48
  %77 = getelementptr inbounds i32, ptr %76, i64 0
  store i32 %75, ptr %77, align 4, !tbaa !11
  %78 = getelementptr inbounds [2 x i32], ptr %12, i64 0, i64 1
  %79 = load i32, ptr %78, align 4, !tbaa !11
  %80 = load ptr, ptr %9, align 8, !tbaa !48
  %81 = getelementptr inbounds i32, ptr %80, i64 1
  store i32 %79, ptr %81, align 4, !tbaa !11
  store i32 0, ptr %6, align 4
  store i32 1, ptr %15, align 4
  br label %90

82:                                               ; preds = %71, %60
  %83 = getelementptr inbounds [2 x i32], ptr %12, i64 0, i64 0
  %84 = load i32, ptr %83, align 4, !tbaa !11
  %85 = call i32 @uv__close(i32 noundef %84)
  %86 = getelementptr inbounds [2 x i32], ptr %12, i64 0, i64 1
  %87 = load i32, ptr %86, align 4, !tbaa !11
  %88 = call i32 @uv__close(i32 noundef %87)
  %89 = load i32, ptr %13, align 4, !tbaa !11
  store i32 %89, ptr %6, align 4
  store i32 1, ptr %15, align 4
  br label %90

90:                                               ; preds = %82, %73, %42, %34
  call void @llvm.lifetime.end.p0(i64 4, ptr %14) #8
  call void @llvm.lifetime.end.p0(i64 4, ptr %13) #8
  call void @llvm.lifetime.end.p0(i64 8, ptr %12) #8
  %91 = load i32, ptr %6, align 4
  ret i32 %91
}