; Function Attrs: nounwind uwtable
define dso_local i32 @uv_socketpair(i32 noundef %0, i32 noundef %1, ptr noundef writeonly captures(none) %2, i32 noundef %3, i32 noundef %4) local_unnamed_addr #0 {
  %6 = alloca [2 x i32], align 4
  call void @llvm.lifetime.start.p0(i64 8, ptr nonnull %6) #8
  %7 = and i32 %3, 64
  %.not = icmp eq i32 %7, 0
  %8 = and i32 %4, 64
  %.not18 = icmp eq i32 %8, 0
  %9 = and i32 %7, %4
  %or.cond.not.not = icmp eq i32 %9, 0
  %.0.v = select i1 %or.cond.not.not, i32 524288, i32 526336
  %.0 = or i32 %.0.v, %0
  %10 = call i32 @socketpair(i32 noundef 1, i32 noundef %.0, i32 noundef %1, ptr noundef nonnull %6) #8
  %.not19 = icmp eq i32 %10, 0
  br i1 %.not19, label %15, label %11

11:                                               ; preds = %5
  %12 = tail call ptr @__errno_location() #9
  %13 = load i32, ptr %12, align 4, !tbaa !20
  %14 = sub nsw i32 0, %13
  br label %42

15:                                               ; preds = %5
  %16 = and i32 %.0, 2048
  %.not20 = icmp eq i32 %16, 0
  br i1 %.not20, label %22, label %17

17:                                               ; preds = %15
  %18 = load i32, ptr %6, align 4, !tbaa !20
  store i32 %18, ptr %2, align 4, !tbaa !20
  %19 = getelementptr inbounds nuw i8, ptr %6, i64 4
  %20 = load i32, ptr %19, align 4, !tbaa !20
  %21 = getelementptr inbounds nuw i8, ptr %2, i64 4
  store i32 %20, ptr %21, align 4, !tbaa !20
  br label %42

22:                                               ; preds = %15
  br i1 %.not, label %26, label %23

23:                                               ; preds = %22
  %24 = load i32, ptr %6, align 4, !tbaa !20
  %25 = call i32 @uv__nonblock_ioctl(i32 noundef %24, i32 noundef 1) #8
  %.not21 = icmp eq i32 %25, 0
  br i1 %.not21, label %26, label %36

26:                                               ; preds = %23, %22
  br i1 %.not18, label %31, label %27

27:                                               ; preds = %26
  %28 = getelementptr inbounds nuw i8, ptr %6, i64 4
  %29 = load i32, ptr %28, align 4, !tbaa !20
  %30 = call i32 @uv__nonblock_ioctl(i32 noundef %29, i32 noundef 1) #8
  %.not23 = icmp eq i32 %30, 0
  br i1 %.not23, label %31, label %36

31:                                               ; preds = %27, %26
  %32 = load i32, ptr %6, align 4, !tbaa !20
  store i32 %32, ptr %2, align 4, !tbaa !20
  %33 = getelementptr inbounds nuw i8, ptr %6, i64 4
  %34 = load i32, ptr %33, align 4, !tbaa !20
  %35 = getelementptr inbounds nuw i8, ptr %2, i64 4
  store i32 %34, ptr %35, align 4, !tbaa !20
  br label %42

36:                                               ; preds = %27, %23
  %.014 = phi i32 [ %25, %23 ], [ %30, %27 ]
  %37 = load i32, ptr %6, align 4, !tbaa !20
  %38 = call i32 @uv__close(i32 noundef %37) #8
  %39 = getelementptr inbounds nuw i8, ptr %6, i64 4
  %40 = load i32, ptr %39, align 4, !tbaa !20
  %41 = call i32 @uv__close(i32 noundef %40) #8
  br label %42

42:                                               ; preds = %36, %31, %17, %11
  %.015 = phi i32 [ %14, %11 ], [ 0, %17 ], [ %.014, %36 ], [ 0, %31 ]
  call void @llvm.lifetime.end.p0(i64 8, ptr nonnull %6) #8
  ret i32 %.015
}